target datalayout = "e-m:e-p270:32:32-p271:32:32-p272:64:64-i64:64-i128:128-f80:128-n8:16:32:64-S128"
target triple = "x86_64-pc-linux-gnu"

@proto_register_lbmpdm_tcp.ett = internal global [1 x ptr] [ptr @ett_lbmpdm_tcp], align 8
@.str.4 = private unnamed_addr constant [25 x i8] c"LBMPDM over TCP Protocol\00", align 1
@.str.5 = private unnamed_addr constant [11 x i8] c"LBMPDM-TCP\00", align 1
@.str.6 = private unnamed_addr constant [11 x i8] c"lbmpdm_tcp\00", align 1
@lbmpdm_tcp_protocol_handle = internal global i32 -1, align 4
@.str.7 = private unnamed_addr constant [7 x i8] c"29West\00", align 1
@.str.8 = private unnamed_addr constant [9 x i8] c"port_low\00", align 1
@.str.9 = private unnamed_addr constant [31 x i8] c"Port range low (default 14371)\00", align 1
@.str.10 = private unnamed_addr constant [38 x i8] c"Set the low end of the TCP port range\00", align 1
@global_lbmpdm_tcp_port_low = internal global i32 14371, align 4
@.str.11 = private unnamed_addr constant [10 x i8] c"port_high\00", align 1
@.str.12 = private unnamed_addr constant [32 x i8] c"Port range high (default 14390)\00", align 1
@.str.13 = private unnamed_addr constant [35 x i8] c"Set the high end of the port range\00", align 1
@global_lbmpdm_tcp_port_high = internal global i32 14390, align 4
@.str.14 = private unnamed_addr constant [22 x i8] c"use_lbmpdm_tcp_domain\00", align 1
@.str.15 = private unnamed_addr constant [25 x i8] c"Use LBMPDM-TCP tag table\00", align 1
@.str.16 = private unnamed_addr constant [74 x i8] c"Use table of LBMPDM-TCP tags to decode the packet instead of above values\00", align 1
@global_lbmpdm_tcp_use_tag = internal global i8 0, align 1
@.str.17 = private unnamed_addr constant [27 x i8] c"LBMPDM-TCP tag definitions\00", align 1
@.str.18 = private unnamed_addr constant [19 x i8] c"lbmpdm_tcp_domains\00", align 1
@lbmpdm_tcp_tag_entry = internal global ptr null, align 8
@lbmpdm_tcp_tag_count = internal global i32 0, align 4
@.str.19 = private unnamed_addr constant [20 x i8] c"tnw_lbmpdm_tcp_tags\00", align 1
@.str.20 = private unnamed_addr constant [16 x i8] c"LBMPDM-TCP Tags\00", align 1
@.str.21 = private unnamed_addr constant [34 x i8] c"A table to define LBMPDM-TCP tags\00", align 1
@lbmpdm_tcp_dissector_handle = internal global ptr null, align 8

; Function Attrs: null_pointer_is_valid sspstrong uwtable
define hidden void @proto_register_lbmpdm_tcp() #0 {
  %1 = alloca ptr, align 8
  %2 = alloca ptr, align 8
  call void @llvm.lifetime.start.p0(i64 8, ptr %1) #9
  call void @llvm.lifetime.start.p0(i64 8, ptr %2) #9
  %3 = call i32 @proto_register_protocol(ptr noundef @.str.4, ptr noundef @.str.5, ptr noundef @.str.6)
  store i32 %3, ptr @lbmpdm_tcp_protocol_handle, align 4
  %4 = load i32, ptr @lbmpdm_tcp_protocol_handle, align 4
  call void @proto_register_field_array(i32 noundef %4, ptr noundef @proto_register_lbmpdm_tcp.hf, i32 noundef 2)
  call void @proto_register_subtree_array(ptr noundef @proto_register_lbmpdm_tcp.ett, i32 noundef 1)
  %5 = load i32, ptr @lbmpdm_tcp_protocol_handle, align 4
  %6 = call ptr @prefs_register_protocol_subtree(ptr noundef @.str.7, i32 noundef %5, ptr noundef @proto_reg_handoff_lbmpdm_tcp)
  store ptr %6, ptr %1, align 8
  %7 = load ptr, ptr %1, align 8
  call void @prefs_register_uint_preference(ptr noundef %7, ptr noundef @.str.8, ptr noundef @.str.9, ptr noundef @.str.10, i32 noundef 10, ptr noundef @global_lbmpdm_tcp_port_low)
  %8 = load ptr, ptr %1, align 8
  call void @prefs_register_uint_preference(ptr noundef %8, ptr noundef @.str.11, ptr noundef @.str.12, ptr noundef @.str.13, i32 noundef 10, ptr noundef @global_lbmpdm_tcp_port_high)
  %9 = load ptr, ptr %1, align 8
  call void @prefs_register_bool_preference(ptr noundef %9, ptr noundef @.str.14, ptr noundef @.str.15, ptr noundef @.str.16, ptr noundef @global_lbmpdm_tcp_use_tag)
  %10 = call ptr @uat_new(ptr noundef @.str.17, i64 noundef 16, ptr noundef @.str.18, i1 noundef zeroext true, ptr noundef @lbmpdm_tcp_tag_entry, ptr noundef @lbmpdm_tcp_tag_count, i32 noundef 1, ptr noundef null, ptr noundef @lbmpdm_tcp_tag_copy_cb, ptr noundef @lbmpdm_tcp_tag_update_cb, ptr noundef @lbmpdm_tcp_tag_free_cb, ptr noundef null, ptr noundef null, ptr noundef @lbmpdm_tcp_tag_array)
  store ptr %10, ptr %2, align 8
  %11 = load ptr, ptr %1, align 8
  %12 = load ptr, ptr %2, align 8
  call void @prefs_register_uat_preference(ptr noundef %11, ptr noundef @.str.19, ptr noundef @.str.20, ptr noundef @.str.21, ptr noundef %12)
  %13 = load i32, ptr @lbmpdm_tcp_protocol_handle, align 4
  %14 = call ptr @register_dissector(ptr noundef @.str.6, ptr noundef @dissect_lbmpdm_tcp, i32 noundef %13)
  store ptr %14, ptr @lbmpdm_tcp_dissector_handle, align 8
  call void @llvm.lifetime.end.p0(i64 8, ptr %2) #9
  call void @llvm.lifetime.end.p0(i64 8, ptr %1) #9
  ret void
}