; Function Attrs: null_pointer_is_valid sspstrong uwtable
define hidden void @proto_register_lbmpdm_tcp() local_unnamed_addr #0 {
  %1 = tail call i32 @proto_register_protocol(ptr noundef nonnull @.str.4, ptr noundef nonnull @.str.5, ptr noundef nonnull @.str.6)
  store i32 %1, ptr @lbmpdm_tcp_protocol_handle, align 4
  tail call void @proto_register_field_array(i32 noundef %1, ptr noundef nonnull @proto_register_lbmpdm_tcp.hf, i32 noundef 2)
  tail call void @proto_register_subtree_array(ptr noundef nonnull @proto_register_lbmpdm_tcp.ett, i32 noundef 1)
  %2 = load i32, ptr @lbmpdm_tcp_protocol_handle, align 4
  %3 = tail call ptr @prefs_register_protocol_subtree(ptr noundef nonnull @.str.7, i32 noundef %2, ptr noundef nonnull @proto_reg_handoff_lbmpdm_tcp)
  tail call void @prefs_register_uint_preference(ptr noundef %3, ptr noundef nonnull @.str.8, ptr noundef nonnull @.str.9, ptr noundef nonnull @.str.10, i32 noundef 10, ptr noundef nonnull @global_lbmpdm_tcp_port_low)
  tail call void @prefs_register_uint_preference(ptr noundef %3, ptr noundef nonnull @.str.11, ptr noundef nonnull @.str.12, ptr noundef nonnull @.str.13, i32 noundef 10, ptr noundef nonnull @global_lbmpdm_tcp_port_high)
  tail call void @prefs_register_bool_preference(ptr noundef %3, ptr noundef nonnull @.str.14, ptr noundef nonnull @.str.15, ptr noundef nonnull @.str.16, ptr noundef nonnull @global_lbmpdm_tcp_use_tag)
  %4 = tail call ptr @uat_new(ptr noundef nonnull @.str.17, i64 noundef 16, ptr noundef nonnull @.str.18, i1 noundef zeroext true, ptr noundef nonnull @lbmpdm_tcp_tag_entry, ptr noundef nonnull @lbmpdm_tcp_tag_count, i32 noundef 1, ptr noundef null, ptr noundef nonnull @lbmpdm_tcp_tag_copy_cb, ptr noundef nonnull @lbmpdm_tcp_tag_update_cb, ptr noundef nonnull @lbmpdm_tcp_tag_free_cb, ptr noundef null, ptr noundef null, ptr noundef nonnull @lbmpdm_tcp_tag_array)
  tail call void @prefs_register_uat_preference(ptr noundef %3, ptr noundef nonnull @.str.19, ptr noundef nonnull @.str.20, ptr noundef nonnull @.str.21, ptr noundef %4)
  %5 = load i32, ptr @lbmpdm_tcp_protocol_handle, align 4
  %6 = tail call ptr @register_dissector(ptr noundef nonnull @.str.6, ptr noundef nonnull @dissect_lbmpdm_tcp, i32 noundef %5)
  store ptr %6, ptr @lbmpdm_tcp_dissector_handle, align 8
  ret void
}